target datalayout = "e-m:e-p270:32:32-p271:32:32-p272:64:64-i64:64-i128:128-f80:128-n8:16:32:64-S128"
target triple = "x86_64-pc-linux-gnu"

%struct.H5D_contig_writevv_ud_t = type { ptr, i64, ptr }

@H5D_init_g = external global i8, align 1
@H5_libterm_g = external global i8, align 1
@.str.1 = private unnamed_addr constant [103 x i8] c"generated/home/dtcxzyw/WorkSpace/Projects/compilers/llvm-opt-benchmark/bench/hdf5/hdf5/src/H5Dcontig.c\00", align 1
@H5E_DATASET_g = external global i64, align 8
@H5E_WRITEERROR_g = external global i64, align 8
@.str.51 = private unnamed_addr constant [19 x i8] c"block write failed\00", align 1
@__func__.H5D__contig_writevv_cb = private unnamed_addr constant [23 x i8] c"H5D__contig_writevv_cb\00", align 1

; Function Attrs: nounwind uwtable
define internal i32 @H5D__contig_writevv_cb(i64 noundef %0, i64 noundef %1, i64 noundef %2, ptr noundef %3) #0 {
  %5 = alloca i64, align 8
  %6 = alloca i64, align 8
  %7 = alloca i64, align 8
  %8 = alloca ptr, align 8
  %9 = alloca ptr, align 8
  %10 = alloca i32, align 4
  %11 = alloca i8, align 1
  store i64 %0, ptr %5, align 8, !tbaa !49
  store i64 %1, ptr %6, align 8, !tbaa !49
  store i64 %2, ptr %7, align 8, !tbaa !49
  store ptr %3, ptr %8, align 8, !tbaa !120
  call void @llvm.lifetime.start.p0(i64 8, ptr %9) #6
  %12 = load ptr, ptr %8, align 8, !tbaa !120
  store ptr %12, ptr %9, align 8, !tbaa !193
  call void @llvm.lifetime.start.p0(i64 4, ptr %10) #6
  store i32 0, ptr %10, align 4, !tbaa !10
  call void @llvm.lifetime.start.p0(i64 1, ptr %11) #6
  store i8 0, ptr %11, align 1, !tbaa !12
  %13 = load i8, ptr @H5D_init_g, align 1, !tbaa !12, !range !14, !noundef !15
  %14 = trunc i8 %13 to i1
  br i1 %14, label %19, label %15

15:                                               ; preds = %4
  %16 = load i8, ptr @H5_libterm_g, align 1, !tbaa !12, !range !14, !noundef !15
  %17 = trunc i8 %16 to i1
  %18 = xor i1 %17, true
  br label %19

19:                                               ; preds = %15, %4
  %20 = phi i1 [ true, %4 ], [ %18, %15 ]
  %21 = xor i1 %20, true
  %22 = xor i1 %21, true
  %23 = zext i1 %22 to i32
  %24 = sext i32 %23 to i64
  %25 = call i64 @llvm.expect.i64(i64 %24, i64 1)
  %26 = icmp ne i64 %25, 0
  br i1 %26, label %27, label %65

27:                                               ; preds = %19
  %28 = load ptr, ptr %9, align 8, !tbaa !193
  %29 = getelementptr inbounds nuw %struct.H5D_contig_writevv_ud_t, ptr %28, i32 0, i32 0
  %30 = load ptr, ptr %29, align 8, !tbaa !141
  %31 = load ptr, ptr %9, align 8, !tbaa !193
  %32 = getelementptr inbounds nuw %struct.H5D_contig_writevv_ud_t, ptr %31, i32 0, i32 1
  %33 = load i64, ptr %32, align 8, !tbaa !143
  %34 = load i64, ptr %5, align 8, !tbaa !49
  %35 = add i64 %33, %34
  %36 = load i64, ptr %7, align 8, !tbaa !49
  %37 = load ptr, ptr %9, align 8, !tbaa !193
  %38 = getelementptr inbounds nuw %struct.H5D_contig_writevv_ud_t, ptr %37, i32 0, i32 2
  %39 = load ptr, ptr %38, align 8, !tbaa !144
  %40 = load i64, ptr %6, align 8, !tbaa !49
  %41 = getelementptr inbounds nuw i8, ptr %39, i64 %40
  %42 = call i32 @H5F_shared_block_write(ptr noundef %30, i32 noundef 3, i64 noundef %35, i64 noundef %36, ptr noundef %41)
  %43 = icmp slt i32 %42, 0
  br i1 %43, label %44, label %63

44:                                               ; preds = %27
  br label %45

45:                                               ; preds = %44
  br label %46

46:                                               ; preds = %45
  br label %47

47:                                               ; preds = %46
  %48 = load i64, ptr @H5E_DATASET_g, align 8, !tbaa !49
  %49 = load i64, ptr @H5E_WRITEERROR_g, align 8, !tbaa !49
  %50 = call i32 (ptr, ptr, i32, i64, i64, ptr, ...) @H5E_printf_stack(ptr noundef @.str.1, ptr noundef @__func__.H5D__contig_writevv_cb, i32 noundef 1502, i64 noundef %48, i64 noundef %49, ptr noundef @.str.51)
  br label %51

51:                                               ; preds = %47
  br label %52

52:                                               ; preds = %51
  store i8 1, ptr %11, align 1, !tbaa !12
  %53 = load i8, ptr %11, align 1, !tbaa !12, !range !14, !noundef !15
  %54 = trunc i8 %53 to i1
  %55 = zext i1 %54 to i8
  store i8 %55, ptr %11, align 1, !tbaa !12
  br label %56

56:                                               ; preds = %52
  br label %57

57:                                               ; preds = %56
  br label %58

58:                                               ; preds = %57
  store i32 -1, ptr %10, align 4, !tbaa !10
  br label %64

59:                                               ; No predecessors!
  br label %60

60:                                               ; preds = %59
  br label %61

61:                                               ; preds = %60
  br label %62

62:                                               ; preds = %61
  br label %63

63:                                               ; preds = %62, %27
  br label %64

64:                                               ; preds = %63, %58
  br label %65

65:                                               ; preds = %64, %19
  %66 = load i32, ptr %10, align 4, !tbaa !10
  call void @llvm.lifetime.end.p0(i64 1, ptr %11) #6
  call void @llvm.lifetime.end.p0(i64 4, ptr %10) #6
  call void @llvm.lifetime.end.p0(i64 8, ptr %9) #6
  ret i32 %66
}