; Function Attrs: nounwind uwtable
define internal range(i32 -1, 1) i32 @H5D__contig_writevv_cb(i64 noundef %0, i64 noundef %1, i64 noundef %2, ptr noundef readonly captures(none) %3) #0 {
  %5 = load i8, ptr @H5D_init_g, align 1, !tbaa !3, !range !7, !noundef !8
  %6 = trunc nuw i8 %5 to i1
  %7 = load i8, ptr @H5_libterm_g, align 1, !range !7
  %8 = trunc nuw i8 %7 to i1
  %9 = xor i1 %8, true
  %10 = select i1 %6, i1 true, i1 %9
  br i1 %10, label %11, label %25, !prof !9

11:                                               ; preds = %4
  %12 = load ptr, ptr %3, align 8, !tbaa !135
  %13 = getelementptr inbounds nuw i8, ptr %3, i64 8
  %14 = load i64, ptr %13, align 8, !tbaa !137
  %15 = add i64 %14, %0
  %16 = getelementptr inbounds nuw i8, ptr %3, i64 16
  %17 = load ptr, ptr %16, align 8, !tbaa !138
  %18 = getelementptr inbounds nuw i8, ptr %17, i64 %1
  %19 = tail call i32 @H5F_shared_block_write(ptr noundef %12, i32 noundef 3, i64 noundef %15, i64 noundef %2, ptr noundef %18) #9
  %20 = icmp slt i32 %19, 0
  br i1 %20, label %21, label %25

21:                                               ; preds = %11
  %22 = load i64, ptr @H5E_DATASET_g, align 8, !tbaa !48
  %23 = load i64, ptr @H5E_WRITEERROR_g, align 8, !tbaa !48
  %24 = tail call i32 (ptr, ptr, i32, i64, i64, ptr, ...) @H5E_printf_stack(ptr noundef nonnull @.str.1, ptr noundef nonnull @__func__.H5D__contig_writevv_cb, i32 noundef 1502, i64 noundef %22, i64 noundef %23, ptr noundef nonnull @.str.51) #9
  br label %25

25:                                               ; preds = %21, %11, %4
  %.0 = phi i32 [ -1, %21 ], [ 0, %11 ], [ 0, %4 ]
  ret i32 %.0
}